; Function Attrs: nounwind uwtable
define ptr @l_String_foldlAux___at_Lake_Toml_elabBinNum___spec__1(ptr noundef %0, ptr noundef %1, ptr noundef %2, ptr noundef %3) local_unnamed_addr #0 {
  %5 = ptrtoint ptr %1 to i64
  %6 = and i64 %5, 1
  %.not65 = icmp eq i64 %6, 0
  br label %lean_dec.exit38.outer

lean_dec.exit38.outer:                            ; preds = %lean_dec.exit38.outer.backedge, %4
  %.029.ph = phi ptr [ %3, %4 ], [ %.029.ph.be, %lean_dec.exit38.outer.backedge ]
  %.027.ph = phi ptr [ %2, %4 ], [ %20, %lean_dec.exit38.outer.backedge ]
  br label %lean_dec.exit38

lean_dec.exit38:                                  ; preds = %lean_dec.exit38.outer, %lean_dec.exit37
  %.027 = phi ptr [ %20, %lean_dec.exit37 ], [ %.027.ph, %lean_dec.exit38.outer ]
  %7 = ptrtoint ptr %.027 to i64
  %8 = and i64 %7, 1
  %.not = icmp eq i64 %8, 0
  br i1 %.not, label %lean_nat_lt.exit.thread62, label %9, !prof !15

9:                                                ; preds = %lean_dec.exit38
  br i1 %.not65, label %lean_nat_lt.exit, label %lean_nat_lt.exit.thread, !prof !15

lean_nat_lt.exit:                                 ; preds = %9
  %10 = tail call zeroext i1 @lean_nat_big_lt(ptr noundef %.027, ptr noundef %1) #7
  br i1 %10, label %19, label %.thread

lean_nat_lt.exit.thread62:                        ; preds = %lean_dec.exit38
  %11 = tail call zeroext i1 @lean_nat_big_lt(ptr noundef %.027, ptr noundef %1) #7
  br i1 %11, label %19, label %12

lean_nat_lt.exit.thread:                          ; preds = %9
  %.not66 = icmp ult ptr %.027, %1
  br i1 %.not66, label %19, label %.thread

12:                                               ; preds = %lean_nat_lt.exit.thread62
  %13 = load i32, ptr %.027, align 4, !tbaa !8
  %14 = icmp sgt i32 %13, 1
  br i1 %14, label %15, label %17, !prof !11

15:                                               ; preds = %12
  %16 = add nsw i32 %13, -1
  store i32 %16, ptr %.027, align 4, !tbaa !8
  br label %.thread

17:                                               ; preds = %12
  %.not.i = icmp eq i32 %13, 0
  br i1 %.not.i, label %.thread, label %18

18:                                               ; preds = %17
  tail call void @lean_dec_ref_cold(ptr noundef nonnull %.027) #7
  br label %.thread

19:                                               ; preds = %lean_nat_lt.exit.thread62, %lean_nat_lt.exit.thread, %lean_nat_lt.exit
  %20 = tail call ptr @lean_string_utf8_next(ptr noundef %0, ptr noundef %.027) #7
  %21 = tail call i32 @lean_string_utf8_get(ptr noundef %0, ptr noundef %.027) #7
  br i1 %.not, label %22, label %lean_dec.exit37

22:                                               ; preds = %19
  %23 = load i32, ptr %.027, align 4, !tbaa !8
  %24 = icmp sgt i32 %23, 1
  br i1 %24, label %25, label %27, !prof !11

25:                                               ; preds = %22
  %26 = add nsw i32 %23, -1
  store i32 %26, ptr %.027, align 4, !tbaa !8
  br label %lean_dec.exit37

27:                                               ; preds = %22
  %.not.i39 = icmp eq i32 %23, 0
  br i1 %.not.i39, label %lean_dec.exit37, label %28

28:                                               ; preds = %27
  tail call void @lean_dec_ref_cold(ptr noundef nonnull %.027) #7
  br label %lean_dec.exit37

lean_dec.exit37:                                  ; preds = %28, %27, %25, %19
  %.not67 = icmp eq i32 %21, 95
  br i1 %.not67, label %lean_dec.exit38, label %29

29:                                               ; preds = %lean_dec.exit37
  %30 = ptrtoint ptr %.029.ph to i64
  %31 = and i64 %30, 1
  %.not68 = icmp eq i64 %31, 0
  br i1 %.not68, label %43, label %32, !prof !15

32:                                               ; preds = %29
  %33 = lshr i64 %30, 1
  %34 = icmp ult ptr %.029.ph, inttoptr (i64 2 to ptr)
  br i1 %34, label %lean_dec.exit36, label %35

35:                                               ; preds = %32
  %36 = icmp sgt ptr %.029.ph, inttoptr (i64 -1 to ptr)
  br i1 %36, label %37, label %41

37:                                               ; preds = %35
  %mul.i64 = shl i64 %30, 1
  %38 = and i64 %mul.i64, -4
  %39 = or disjoint i64 %38, 1
  %40 = inttoptr i64 %39 to ptr
  br label %lean_dec.exit36

41:                                               ; preds = %35
  %42 = tail call ptr @lean_nat_overflow_mul(i64 noundef %33, i64 noundef 2) #7
  br label %lean_dec.exit36

43:                                               ; preds = %29
  %44 = tail call ptr @lean_nat_big_mul(ptr noundef %.029.ph, ptr noundef nonnull inttoptr (i64 5 to ptr)) #7
  %45 = load i32, ptr %.029.ph, align 4, !tbaa !8
  %46 = icmp sgt i32 %45, 1
  br i1 %46, label %47, label %49, !prof !11

47:                                               ; preds = %43
  %48 = add nsw i32 %45, -1
  store i32 %48, ptr %.029.ph, align 4, !tbaa !8
  br label %lean_dec.exit36

49:                                               ; preds = %43
  %.not.i41 = icmp eq i32 %45, 0
  br i1 %.not.i41, label %lean_dec.exit36, label %50

50:                                               ; preds = %49
  tail call void @lean_dec_ref_cold(ptr noundef nonnull %.029.ph) #7
  br label %lean_dec.exit36

lean_dec.exit36:                                  ; preds = %41, %37, %32, %50, %49, %47
  %.2.i52 = phi ptr [ %44, %47 ], [ %44, %49 ], [ %44, %50 ], [ %42, %41 ], [ %40, %37 ], [ %.029.ph, %32 ]
  %51 = add i32 %21, -48
  %52 = zext i32 %51 to i64
  %53 = ptrtoint ptr %.2.i52 to i64
  %54 = and i64 %53, 1
  %.not69 = icmp eq i64 %54, 0
  br i1 %.not69, label %65, label %55, !prof !15

55:                                               ; preds = %lean_dec.exit36
  %56 = lshr i64 %53, 1
  %57 = add nuw i64 %56, %52
  %58 = icmp sgt i64 %57, -1
  br i1 %58, label %59, label %63, !prof !11

59:                                               ; preds = %55
  %60 = shl nuw i64 %57, 1
  %61 = or disjoint i64 %60, 1
  %62 = inttoptr i64 %61 to ptr
  br label %lean_dec.exit38.outer.backedge

63:                                               ; preds = %55
  %64 = tail call ptr @lean_big_usize_to_nat(i64 noundef range(i64 0, -1) %57) #7
  br label %lean_dec.exit38.outer.backedge

65:                                               ; preds = %lean_dec.exit36
  %66 = shl nuw nsw i64 %52, 1
  %67 = or disjoint i64 %66, 1
  %68 = inttoptr i64 %67 to ptr
  %69 = tail call ptr @lean_nat_big_add(ptr noundef %.2.i52, ptr noundef nonnull %68) #7
  %70 = load i32, ptr %.2.i52, align 4, !tbaa !8
  %71 = icmp sgt i32 %70, 1
  br i1 %71, label %72, label %74, !prof !11

72:                                               ; preds = %65
  %73 = add nsw i32 %70, -1
  store i32 %73, ptr %.2.i52, align 4, !tbaa !8
  br label %lean_dec.exit38.outer.backedge

lean_dec.exit38.outer.backedge:                   ; preds = %72, %74, %75, %63, %59
  %.029.ph.be = phi ptr [ %62, %59 ], [ %64, %63 ], [ %69, %75 ], [ %69, %74 ], [ %69, %72 ]
  br label %lean_dec.exit38.outer

74:                                               ; preds = %65
  %.not.i45 = icmp eq i32 %70, 0
  br i1 %.not.i45, label %lean_dec.exit38.outer.backedge, label %75

75:                                               ; preds = %74
  tail call void @lean_dec_ref_cold(ptr noundef nonnull %.2.i52) #7
  br label %lean_dec.exit38.outer.backedge

.thread:                                          ; preds = %lean_nat_lt.exit, %lean_nat_lt.exit.thread, %18, %17, %15
  ret ptr %.029.ph
}